target datalayout = "e-m:e-p270:32:32-p271:32:32-p272:64:64-i64:64-i128:128-f80:128-n8:16:32:64-S128"
target triple = "x86_64-unknown-linux-gnu"

module asm ".section\09\22.initcall6.init\22, \22a\22\09\09"
module asm "__initcall__kmod_pcspeaker__311_14_add_pcspkr6:\09\09\09"
module asm ".long\09add_pcspkr - .\09"
module asm ".previous\09\09\09\09\09"

%struct.platform_device_info = type { ptr, ptr, i8, ptr, i32, ptr, i32, ptr, i64, i64, ptr }

@__UNIQUE_ID___addressable_add_pcspkr312 = internal global ptr @add_pcspkr, section ".discard.addressable", align 8
@.str = private unnamed_addr constant [7 x i8] c"pcspkr\00", align 1
@llvm.compiler.used = appending global [1 x ptr] [ptr @__UNIQUE_ID___addressable_add_pcspkr312], section "llvm.metadata"

; Function Attrs: cold fn_ret_thunk_extern nounwind null_pointer_is_valid optsize
define internal i32 @add_pcspkr() #0 section ".init.text" align 16 {
  %1 = alloca %struct.platform_device_info, align 8
  call void @llvm.lifetime.start.p0(i64 88, ptr nonnull %1) #4
  %2 = getelementptr inbounds i8, ptr %1, i64 24
  call void @llvm.memset.p0.i64(ptr noundef nonnull align 8 dereferenceable(88) %1, i8 0, i64 88, i1 false)
  store ptr @.str, ptr %2, align 8
  %3 = getelementptr inbounds i8, ptr %1, i64 32
  store i32 -1, ptr %3, align 8
  %4 = getelementptr inbounds i8, ptr %1, i64 40
  store ptr null, ptr %4, align 8
  %5 = getelementptr inbounds i8, ptr %1, i64 48
  store i32 0, ptr %5, align 8
  %6 = getelementptr inbounds i8, ptr %1, i64 56
  call void @llvm.memset.p0.i64(ptr noundef align 8 dereferenceable(32) %6, i8 0, i64 32, i1 false)
  %7 = call ptr @platform_device_register_full(ptr noundef nonnull %1) #4
  call void @llvm.lifetime.end.p0(i64 88, ptr nonnull %1) #4
  %8 = icmp ugt ptr %7, inttoptr (i64 -4096 to ptr)
  %9 = ptrtoint ptr %7 to i64
  %10 = trunc i64 %9 to i32
  %11 = select i1 %8, i32 %10, i32 0
  ret i32 %11
}

; Function Attrs: nocallback nofree nosync nounwind willreturn memory(argmem: readwrite)
declare void @llvm.lifetime.start.p0(i64 immarg, ptr nocapture) #1

; Function Attrs: nocallback nofree nosync nounwind willreturn memory(argmem: readwrite)
declare void @llvm.lifetime.end.p0(i64 immarg, ptr nocapture) #1

; Function Attrs: nocallback nofree nounwind willreturn memory(argmem: write)
declare void @llvm.memset.p0.i64(ptr nocapture writeonly, i8, i64, i1 immarg) #2

; Function Attrs: null_pointer_is_valid
declare dso_local ptr @platform_device_register_full(ptr noundef) local_unnamed_addr #3


!llvm.module.flags = !{!0, !1, !2, !3, !4}

!0 = !{i32 1, !"wchar_size", i32 2}
!1 = !{i32 8, !"cf-protection-branch", i32 1}
!2 = !{i32 4, !"function_return_thunk_extern", i32 1}
!3 = !{i32 4, !"indirect_branch_cs_prefix", i32 1}
!4 = !{i32 4, !"SkipRaxSetup", i32 1}
